target datalayout = "e-m:e-p270:32:32-p271:32:32-p272:64:64-i64:64-i128:128-f80:128-n8:16:32:64-S128"
target triple = "x86_64-pc-linux-gnu"

; Function Attrs: nounwind uwtable
define internal ptr @_sapi_cgi_putenv(ptr noundef %0, i64 noundef %1, ptr noundef %2) #0 {
  %4 = alloca ptr, align 8
  %5 = alloca i64, align 8
  %6 = alloca ptr, align 8
  store ptr %0, ptr %4, align 8, !tbaa !63
  store i64 %1, ptr %5, align 8, !tbaa !64
  store ptr %2, ptr %6, align 8, !tbaa !63
  %7 = load ptr, ptr %6, align 8, !tbaa !63
  %8 = icmp ne ptr %7, null
  br i1 %8, label %9, label %13

9:                                                ; preds = %3
  %10 = load ptr, ptr %4, align 8, !tbaa !63
  %11 = load ptr, ptr %6, align 8, !tbaa !63
  %12 = call i32 @setenv(ptr noundef %10, ptr noundef %11, i32 noundef 1) #20
  br label %13

13:                                               ; preds = %9, %3
  %14 = load ptr, ptr %6, align 8, !tbaa !63
  %15 = icmp ne ptr %14, null
  br i1 %15, label %19, label %16

16:                                               ; preds = %13
  %17 = load ptr, ptr %4, align 8, !tbaa !63
  %18 = call i32 @unsetenv(ptr noundef %17) #20
  br label %19

19:                                               ; preds = %16, %13
  %20 = load ptr, ptr %4, align 8, !tbaa !63
  %21 = call ptr @getenv(ptr noundef %20) #20
  ret ptr %21
}