; Function Attrs: nounwind uwtable
define internal fastcc noundef ptr @_sapi_cgi_putenv(ptr noundef %0, ptr noundef %1) unnamed_addr #0 {
  %.not = icmp eq ptr %1, null
  br i1 %.not, label %.critedge, label %3

3:                                                ; preds = %2
  %4 = tail call i32 @setenv(ptr noundef %0, ptr noundef nonnull %1, i32 noundef 1) #29
  br label %6

.critedge:                                        ; preds = %2
  %5 = tail call i32 @unsetenv(ptr noundef %0) #29
  br label %6

6:                                                ; preds = %3, %.critedge
  %7 = tail call ptr @getenv(ptr noundef %0) #29
  ret ptr %7
}